target datalayout = "e-m:e-p270:32:32-p271:32:32-p272:64:64-i64:64-i128:128-f80:128-n8:16:32:64-S128"
target triple = "x86_64-pc-linux-gnu"

; Function Attrs: inlinehint mustprogress nounwind uwtable
define internal noundef signext i8 @_ZL9U_SUCCESS10UErrorCode(i32 noundef %0) #2 {
  %2 = alloca i32, align 4
  store i32 %0, ptr %2, align 4, !tbaa !15
  %3 = load i32, ptr %2, align 4, !tbaa !15
  %4 = icmp sle i32 %3, 0
  %5 = zext i1 %4 to i8
  ret i8 %5
}

; Function Attrs: mustprogress uwtable
define noundef nonnull align 8 dereferenceable(64) ptr @_ZNK6icu_7712NumberFormat6formatEiRNS_13UnicodeStringERNS_13FieldPositionER10UErrorCode(ptr noundef nonnull align 8 dereferenceable(60) %0, i32 noundef %1, ptr noundef nonnull align 8 dereferenceable(64) %2, ptr noundef nonnull align 8 dereferenceable(20) %3, ptr noundef nonnull align 4 dereferenceable(4) %4) unnamed_addr #1 align 2 {
  %6 = alloca ptr, align 8
  %7 = alloca ptr, align 8
  %8 = alloca i32, align 4
  %9 = alloca ptr, align 8
  %10 = alloca ptr, align 8
  %11 = alloca ptr, align 8
  store ptr %0, ptr %7, align 8, !tbaa !40
  store i32 %1, ptr %8, align 4, !tbaa !14
  store ptr %2, ptr %9, align 8, !tbaa !38
  store ptr %3, ptr %10, align 8, !tbaa !70
  store ptr %4, ptr %11, align 8, !tbaa !22
  %12 = load ptr, ptr %7, align 8
  %13 = load ptr, ptr %11, align 8, !tbaa !22
  %14 = load i32, ptr %13, align 4, !tbaa !15
  %15 = call noundef signext i8 @_ZL9U_SUCCESS10UErrorCode(i32 noundef %14)
  %16 = icmp ne i8 %15, 0
  br i1 %16, label %17, label %25

17:                                               ; preds = %5
  %18 = load i32, ptr %8, align 4, !tbaa !14
  %19 = load ptr, ptr %9, align 8, !tbaa !38
  %20 = load ptr, ptr %10, align 8, !tbaa !70
  %21 = load ptr, ptr %12, align 8, !tbaa !30
  %22 = getelementptr inbounds ptr, ptr %21, i64 11
  %23 = load ptr, ptr %22, align 8
  %24 = call noundef nonnull align 8 dereferenceable(64) ptr %23(ptr noundef nonnull align 8 dereferenceable(60) %12, i32 noundef %18, ptr noundef nonnull align 8 dereferenceable(64) %19, ptr noundef nonnull align 8 dereferenceable(20) %20)
  store ptr %24, ptr %6, align 8
  br label %27

25:                                               ; preds = %5
  %26 = load ptr, ptr %9, align 8, !tbaa !38
  store ptr %26, ptr %6, align 8
  br label %27

27:                                               ; preds = %25, %17
  %28 = load ptr, ptr %6, align 8
  ret ptr %28
}