; Function Attrs: mustprogress uwtable
define noundef nonnull align 8 dereferenceable(64) ptr @_ZNK6icu_7712NumberFormat6formatEiRNS_13UnicodeStringERNS_13FieldPositionER10UErrorCode(ptr noundef nonnull align 8 dereferenceable(60) %0, i32 noundef %1, ptr noundef nonnull align 8 dereferenceable(64) %2, ptr noundef nonnull align 8 dereferenceable(20) %3, ptr noundef nonnull readonly align 4 captures(none) dereferenceable(4) %4) unnamed_addr #1 align 2 {
  %6 = load i32, ptr %4, align 4, !tbaa !13
  %7 = icmp sgt i32 %6, 0
  br i1 %7, label %13, label %8

8:                                                ; preds = %5
  %9 = load ptr, ptr %0, align 8, !tbaa !15
  %10 = getelementptr inbounds nuw i8, ptr %9, i64 88
  %11 = load ptr, ptr %10, align 8
  %12 = tail call noundef nonnull align 8 dereferenceable(64) ptr %11(ptr noundef nonnull align 8 dereferenceable(60) %0, i32 noundef %1, ptr noundef nonnull align 8 dereferenceable(64) %2, ptr noundef nonnull align 8 dereferenceable(20) %3)
  br label %13

13:                                               ; preds = %5, %8
  %.0 = phi ptr [ %12, %8 ], [ %2, %5 ]
  ret ptr %.0
}